(lp1
(lp2
F0.85207726911881454
aF0.75681397195025135
aF0.69515744906059806
aF0.64435035723736434
aF0.60889124106906589
aF0.57634294786980678
aF0.56178883302460969
aF0.54882243979888856
aF0.53929611008203227
aF0.52712357766604923
aF0.51521566551997888
aF0.51071712093146338
aF0.50621857634294787
aF0.49801534797565494
aF0.4953691452765282
aF0.49007673987827471
aF0.48399047367028314
aF0.4813442709711564
aF0.4813442709711564
aF0.48266737232071977
aF0.48372585340037044
aF0.480815030431331
aF0.47843344800211696
aF0.48028578989150572
aF0.4813442709711564
aF0.47896268854194235
aF0.48213813178089437
aF0.48319661286054516
aF0.48346123313045775
aF0.48293199259063246
aaF0.46915932364848778
a(lp3
F0.28054298642533937
aF0.38461538461538464
aF0.44081924267682782
aF0.49083115027387475
aF0.53084067635151222
aa.